target datalayout = "e-m:e-p270:32:32-p271:32:32-p272:64:64-i64:64-i128:128-f80:128-n8:16:32:64-S128"
target triple = "x86_64-pc-linux-gnu"

%"class.lean::object_ref" = type { ptr }
%"class.lean::name" = type { %"class.lean::object_ref" }
%"class.lean::elab_environment" = type { %"class.lean::object_ref" }
%"class.lean::declaration" = type { %"class.lean::object_ref" }
%"class.lean::reducibility_hints" = type { %"class.lean::object_ref" }

@.str.12 = private unnamed_addr constant [9 x i8] c"_cstage1\00", align 1

; Function Attrs: mustprogress nounwind uwtable
define linkonce_odr hidden void @_ZN4lean10object_refC2EP11lean_object(ptr noundef nonnull align 8 dereferenceable(8) %0, ptr noundef %1) unnamed_addr #3 comdat align 2 {
  %3 = alloca ptr, align 8
  %4 = alloca ptr, align 8
  store ptr %0, ptr %3, align 8, !tbaa !39
  store ptr %1, ptr %4, align 8, !tbaa !27
  %5 = load ptr, ptr %3, align 8
  %6 = getelementptr inbounds nuw %"class.lean::object_ref", ptr %5, i32 0, i32 0
  %7 = load ptr, ptr %4, align 8, !tbaa !27
  store ptr %7, ptr %6, align 8, !tbaa !41
  ret void
}

; Function Attrs: inlinehint mustprogress nounwind uwtable
define internal noundef ptr @_ZL8lean_boxm(i64 noundef %0) #6 {
  %2 = alloca i64, align 8
  store i64 %0, ptr %2, align 8, !tbaa !25
  %3 = load i64, ptr %2, align 8, !tbaa !25
  %4 = shl i64 %3, 1
  %5 = or i64 %4, 1
  %6 = inttoptr i64 %5 to ptr
  ret ptr %6
}

; Function Attrs: mustprogress nounwind uwtable
define linkonce_odr hidden void @_ZN4lean18reducibility_hintsC2EP11lean_object(ptr noundef nonnull align 8 dereferenceable(8) %0, ptr noundef %1) unnamed_addr #3 comdat align 2 {
  %3 = alloca ptr, align 8
  %4 = alloca ptr, align 8
  store ptr %0, ptr %3, align 8, !tbaa !343
  store ptr %1, ptr %4, align 8, !tbaa !27
  %5 = load ptr, ptr %3, align 8
  %6 = load ptr, ptr %4, align 8, !tbaa !27
  call void @_ZN4lean10object_refC2EP11lean_object(ptr noundef nonnull align 8 dereferenceable(8) %5, ptr noundef %6)
  ret void
}

; Function Attrs: inlinehint mustprogress uwtable
define linkonce_odr hidden noundef ptr @_ZN4lean3boxEm(i64 noundef %0) #4 comdat {
  %2 = alloca i64, align 8
  store i64 %0, ptr %2, align 8, !tbaa !25
  %3 = load i64, ptr %2, align 8, !tbaa !25
  %4 = call noundef ptr @_ZL8lean_boxm(i64 noundef %3)
  ret ptr %4
}

; Function Attrs: mustprogress uwtable
define linkonce_odr hidden void @_ZN4lean18reducibility_hints9mk_opaqueEv(ptr dead_on_unwind noalias writable sret(%"class.lean::reducibility_hints") align 8 %0) #0 comdat align 2 {
  %2 = alloca ptr, align 8
  store ptr %0, ptr %2, align 8
  %3 = call noundef ptr @_ZN4lean3boxEm(i64 noundef 0)
  call void @_ZN4lean18reducibility_hintsC2EP11lean_object(ptr noundef nonnull align 8 dereferenceable(8) %0, ptr noundef %3)
  ret void
}

; Function Attrs: inlinehint mustprogress uwtable
define linkonce_odr hidden void @_ZN4lean15mk_cstage1_nameERKNS_4nameE(ptr dead_on_unwind noalias writable sret(%"class.lean::name") align 8 %0, ptr noundef nonnull align 8 dereferenceable(8) %1) #4 comdat {
  %3 = alloca ptr, align 8
  %4 = alloca ptr, align 8
  store ptr %0, ptr %3, align 8
  store ptr %1, ptr %4, align 8, !tbaa !8
  %5 = load ptr, ptr %4, align 8, !tbaa !8
  call void @_ZN4lean4nameC1ERKS0_PKc(ptr noundef nonnull align 8 dereferenceable(8) %0, ptr noundef nonnull align 8 dereferenceable(8) %5, ptr noundef @.str.12)
  ret void
}

; Function Attrs: mustprogress uwtable
define hidden void @_ZN4lean20register_stage1_declERKNS_16elab_environmentERKNS_4nameERKNS_8list_refIS3_EERKNS_4exprESC_(ptr dead_on_unwind noalias writable sret(%"class.lean::elab_environment") align 8 %0, ptr noundef nonnull align 8 dereferenceable(8) %1, ptr noundef nonnull align 8 dereferenceable(8) %2, ptr noundef nonnull align 8 dereferenceable(8) %3, ptr noundef nonnull align 8 dereferenceable(8) %4, ptr noundef nonnull align 8 dereferenceable(8) %5) #0 personality ptr @__gxx_personality_v0 {
  %7 = alloca ptr, align 8
  %8 = alloca ptr, align 8
  %9 = alloca ptr, align 8
  %10 = alloca ptr, align 8
  %11 = alloca ptr, align 8
  %12 = alloca ptr, align 8
  %13 = alloca %"class.lean::declaration", align 8
  %14 = alloca %"class.lean::name", align 8
  %15 = alloca %"class.lean::reducibility_hints", align 8
  %16 = alloca ptr, align 8
  %17 = alloca i32, align 4
  store ptr %0, ptr %7, align 8
  store ptr %1, ptr %8, align 8, !tbaa !37
  store ptr %2, ptr %9, align 8, !tbaa !8
  store ptr %3, ptr %10, align 8, !tbaa !12
  store ptr %4, ptr %11, align 8, !tbaa !34
  store ptr %5, ptr %12, align 8, !tbaa !34
  call void @llvm.lifetime.start.p0(i64 8, ptr %13) #19
  call void @llvm.lifetime.start.p0(i64 8, ptr %14) #19
  %18 = load ptr, ptr %9, align 8, !tbaa !8
  call void @_ZN4lean15mk_cstage1_nameERKNS_4nameE(ptr dead_on_unwind writable sret(%"class.lean::name") align 8 %14, ptr noundef nonnull align 8 dereferenceable(8) %18)
  %19 = load ptr, ptr %10, align 8, !tbaa !12
  %20 = load ptr, ptr %11, align 8, !tbaa !34
  %21 = load ptr, ptr %12, align 8, !tbaa !34
  call void @llvm.lifetime.start.p0(i64 8, ptr %15) #19
  invoke void @_ZN4lean18reducibility_hints9mk_opaqueEv(ptr dead_on_unwind writable sret(%"class.lean::reducibility_hints") align 8 %15)
          to label %22 unwind label %26

22:                                               ; preds = %6
  invoke void @_ZN4lean13mk_definitionERKNS_4nameERKNS_8list_refIS0_EERKNS_4exprES9_RKNS_18reducibility_hintsENS_17definition_safetyE(ptr dead_on_unwind writable sret(%"class.lean::declaration") align 8 %13, ptr noundef nonnull align 8 dereferenceable(8) %14, ptr noundef nonnull align 8 dereferenceable(8) %19, ptr noundef nonnull align 8 dereferenceable(8) %20, ptr noundef nonnull align 8 dereferenceable(8) %21, ptr noundef nonnull align 8 dereferenceable(8) %15, i32 noundef 0)
          to label %23 unwind label %30

23:                                               ; preds = %22
  call void @_ZN4lean10object_refD2Ev(ptr noundef nonnull align 8 dereferenceable(8) %15) #19
  call void @llvm.lifetime.end.p0(i64 8, ptr %15) #19
  call void @_ZN4lean10object_refD2Ev(ptr noundef nonnull align 8 dereferenceable(8) %14) #19
  call void @llvm.lifetime.end.p0(i64 8, ptr %14) #19
  %24 = load ptr, ptr %8, align 8, !tbaa !37
  invoke void @_ZNK4lean16elab_environment3addERKNS_11declarationEb(ptr dead_on_unwind writable sret(%"class.lean::elab_environment") align 8 %0, ptr noundef nonnull align 8 dereferenceable(8) %24, ptr noundef nonnull align 8 dereferenceable(8) %13, i1 noundef zeroext false)
          to label %25 unwind label %35

25:                                               ; preds = %23
  call void @_ZN4lean10object_refD2Ev(ptr noundef nonnull align 8 dereferenceable(8) %13) #19
  call void @llvm.lifetime.end.p0(i64 8, ptr %13) #19
  ret void

26:                                               ; preds = %6
  %27 = landingpad { ptr, i32 }
          cleanup
  %28 = extractvalue { ptr, i32 } %27, 0
  store ptr %28, ptr %16, align 8
  %29 = extractvalue { ptr, i32 } %27, 1
  store i32 %29, ptr %17, align 4
  br label %34

30:                                               ; preds = %22
  %31 = landingpad { ptr, i32 }
          cleanup
  %32 = extractvalue { ptr, i32 } %31, 0
  store ptr %32, ptr %16, align 8
  %33 = extractvalue { ptr, i32 } %31, 1
  store i32 %33, ptr %17, align 4
  call void @_ZN4lean10object_refD2Ev(ptr noundef nonnull align 8 dereferenceable(8) %15) #19
  br label %34

34:                                               ; preds = %30, %26
  call void @llvm.lifetime.end.p0(i64 8, ptr %15) #19
  call void @_ZN4lean10object_refD2Ev(ptr noundef nonnull align 8 dereferenceable(8) %14) #19
  call void @llvm.lifetime.end.p0(i64 8, ptr %14) #19
  br label %39

35:                                               ; preds = %23
  %36 = landingpad { ptr, i32 }
          cleanup
  %37 = extractvalue { ptr, i32 } %36, 0
  store ptr %37, ptr %16, align 8
  %38 = extractvalue { ptr, i32 } %36, 1
  store i32 %38, ptr %17, align 4
  call void @_ZN4lean10object_refD2Ev(ptr noundef nonnull align 8 dereferenceable(8) %13) #19
  br label %39

39:                                               ; preds = %35, %34
  call void @llvm.lifetime.end.p0(i64 8, ptr %13) #19
  br label %40

40:                                               ; preds = %39
  %41 = load ptr, ptr %16, align 8
  %42 = load i32, ptr %17, align 4
  %43 = insertvalue { ptr, i32 } poison, ptr %41, 0
  %44 = insertvalue { ptr, i32 } %43, i32 %42, 1
  resume { ptr, i32 } %44
}