; Function Attrs: mustprogress uwtable
define hidden void @_ZN4lean20register_stage1_declERKNS_16elab_environmentERKNS_4nameERKNS_8list_refIS3_EERKNS_4exprESC_(ptr dead_on_unwind noalias writable sret(%"class.lean::elab_environment") align 8 %0, ptr noundef nonnull align 8 dereferenceable(8) %1, ptr noundef nonnull align 8 dereferenceable(8) %2, ptr noundef nonnull align 8 dereferenceable(8) %3, ptr noundef nonnull align 8 dereferenceable(8) %4, ptr noundef nonnull align 8 dereferenceable(8) %5) local_unnamed_addr #0 personality ptr @__gxx_personality_v0 {
  %7 = alloca %"class.lean::declaration", align 8
  %8 = alloca %"class.lean::name", align 8
  %9 = alloca %"class.lean::reducibility_hints", align 8
  call void @llvm.lifetime.start.p0(i64 8, ptr nonnull %7) #25
  call void @llvm.lifetime.start.p0(i64 8, ptr nonnull %8) #25
  call void @_ZN4lean4nameC1ERKS0_PKc(ptr noundef nonnull align 8 dereferenceable(8) %8, ptr noundef nonnull align 8 dereferenceable(8) %2, ptr noundef nonnull @.str.12)
  call void @llvm.lifetime.start.p0(i64 8, ptr nonnull %9) #25
  store ptr inttoptr (i64 1 to ptr), ptr %9, align 8, !tbaa !3, !alias.scope !146
  invoke void @_ZN4lean13mk_definitionERKNS_4nameERKNS_8list_refIS0_EERKNS_4exprES9_RKNS_18reducibility_hintsENS_17definition_safetyE(ptr dead_on_unwind nonnull writable sret(%"class.lean::declaration") align 8 %7, ptr noundef nonnull align 8 dereferenceable(8) %8, ptr noundef nonnull align 8 dereferenceable(8) %3, ptr noundef nonnull align 8 dereferenceable(8) %4, ptr noundef nonnull align 8 dereferenceable(8) %5, ptr noundef nonnull align 8 dereferenceable(8) %9, i32 noundef 0)
          to label %10 unwind label %51

10:                                               ; preds = %6
  %11 = load ptr, ptr %9, align 8, !tbaa !3
  %12 = ptrtoint ptr %11 to i64
  %13 = and i64 %12, 1
  %.not.i.i = icmp eq i64 %13, 0
  br i1 %.not.i.i, label %14, label %_ZN4lean10object_refD2Ev.exit

14:                                               ; preds = %10
  %15 = load i32, ptr %11, align 4, !tbaa !13
  %16 = icmp sgt i32 %15, 1
  br i1 %16, label %17, label %19, !prof !15

17:                                               ; preds = %14
  %18 = add nsw i32 %15, -1
  store i32 %18, ptr %11, align 4, !tbaa !13
  br label %_ZN4lean10object_refD2Ev.exit

19:                                               ; preds = %14
  %.not.i.i.i = icmp eq i32 %15, 0
  br i1 %.not.i.i.i, label %_ZN4lean10object_refD2Ev.exit, label %20

20:                                               ; preds = %19
  invoke void @lean_dec_ref_cold(ptr noundef nonnull %11)
          to label %_ZN4lean10object_refD2Ev.exit unwind label %21

21:                                               ; preds = %20
  %22 = landingpad { ptr, i32 }
          catch ptr null
  %23 = extractvalue { ptr, i32 } %22, 0
  call void @__clang_call_terminate(ptr %23) #26
  unreachable

_ZN4lean10object_refD2Ev.exit:                    ; preds = %10, %17, %19, %20
  call void @llvm.lifetime.end.p0(i64 8, ptr nonnull %9) #25
  %24 = load ptr, ptr %8, align 8, !tbaa !3
  %25 = ptrtoint ptr %24 to i64
  %26 = and i64 %25, 1
  %.not.i.i11 = icmp eq i64 %26, 0
  br i1 %.not.i.i11, label %27, label %_ZN4lean10object_refD2Ev.exit13

27:                                               ; preds = %_ZN4lean10object_refD2Ev.exit
  %28 = load i32, ptr %24, align 4, !tbaa !13
  %29 = icmp sgt i32 %28, 1
  br i1 %29, label %30, label %32, !prof !15

30:                                               ; preds = %27
  %31 = add nsw i32 %28, -1
  store i32 %31, ptr %24, align 4, !tbaa !13
  br label %_ZN4lean10object_refD2Ev.exit13

32:                                               ; preds = %27
  %.not.i.i.i12 = icmp eq i32 %28, 0
  br i1 %.not.i.i.i12, label %_ZN4lean10object_refD2Ev.exit13, label %33

33:                                               ; preds = %32
  invoke void @lean_dec_ref_cold(ptr noundef nonnull %24)
          to label %_ZN4lean10object_refD2Ev.exit13 unwind label %34

34:                                               ; preds = %33
  %35 = landingpad { ptr, i32 }
          catch ptr null
  %36 = extractvalue { ptr, i32 } %35, 0
  call void @__clang_call_terminate(ptr %36) #26
  unreachable

_ZN4lean10object_refD2Ev.exit13:                  ; preds = %_ZN4lean10object_refD2Ev.exit, %30, %32, %33
  call void @llvm.lifetime.end.p0(i64 8, ptr nonnull %8) #25
  invoke void @_ZNK4lean16elab_environment3addERKNS_11declarationEb(ptr dead_on_unwind writable sret(%"class.lean::elab_environment") align 8 %0, ptr noundef nonnull align 8 dereferenceable(8) %1, ptr noundef nonnull align 8 dereferenceable(8) %7, i1 noundef zeroext false)
          to label %37 unwind label %53

37:                                               ; preds = %_ZN4lean10object_refD2Ev.exit13
  %38 = load ptr, ptr %7, align 8, !tbaa !3
  %39 = ptrtoint ptr %38 to i64
  %40 = and i64 %39, 1
  %.not.i.i14 = icmp eq i64 %40, 0
  br i1 %.not.i.i14, label %41, label %_ZN4lean10object_refD2Ev.exit16

41:                                               ; preds = %37
  %42 = load i32, ptr %38, align 4, !tbaa !13
  %43 = icmp sgt i32 %42, 1
  br i1 %43, label %44, label %46, !prof !15

44:                                               ; preds = %41
  %45 = add nsw i32 %42, -1
  store i32 %45, ptr %38, align 4, !tbaa !13
  br label %_ZN4lean10object_refD2Ev.exit16

46:                                               ; preds = %41
  %.not.i.i.i15 = icmp eq i32 %42, 0
  br i1 %.not.i.i.i15, label %_ZN4lean10object_refD2Ev.exit16, label %47

47:                                               ; preds = %46
  invoke void @lean_dec_ref_cold(ptr noundef nonnull %38)
          to label %_ZN4lean10object_refD2Ev.exit16 unwind label %48

48:                                               ; preds = %47
  %49 = landingpad { ptr, i32 }
          catch ptr null
  %50 = extractvalue { ptr, i32 } %49, 0
  call void @__clang_call_terminate(ptr %50) #26
  unreachable

_ZN4lean10object_refD2Ev.exit16:                  ; preds = %37, %44, %46, %47
  call void @llvm.lifetime.end.p0(i64 8, ptr nonnull %7) #25
  ret void

51:                                               ; preds = %6
  %52 = landingpad { ptr, i32 }
          cleanup
  call void @_ZN4lean10object_refD2Ev(ptr noundef nonnull align 8 dereferenceable(8) %9) #25
  call void @llvm.lifetime.end.p0(i64 8, ptr nonnull %9) #25
  call void @_ZN4lean10object_refD2Ev(ptr noundef nonnull align 8 dereferenceable(8) %8) #25
  call void @llvm.lifetime.end.p0(i64 8, ptr nonnull %8) #25
  br label %55

53:                                               ; preds = %_ZN4lean10object_refD2Ev.exit13
  %54 = landingpad { ptr, i32 }
          cleanup
  call void @_ZN4lean10object_refD2Ev(ptr noundef nonnull align 8 dereferenceable(8) %7) #25
  br label %55

55:                                               ; preds = %53, %51
  %.pn9 = phi { ptr, i32 } [ %54, %53 ], [ %52, %51 ]
  call void @llvm.lifetime.end.p0(i64 8, ptr nonnull %7) #25
  resume { ptr, i32 } %.pn9
}